target datalayout = "e-m:e-p270:32:32-p271:32:32-p272:64:64-i64:64-i128:128-f80:128-n8:16:32:64-S128"
target triple = "x86_64-pc-linux-gnu"

@.str.1 = private unnamed_addr constant [12 x i8] c"namespace.c\00", align 1
@.str.22 = private unnamed_addr constant [27 x i8] c"schema \22%s\22 does not exist\00", align 1
@__func__.get_namespace_oid = private unnamed_addr constant [18 x i8] c"get_namespace_oid\00", align 1

; Function Attrs: inlinehint nounwind uwtable
define internal i64 @PointerGetDatum(ptr noundef %0) #7 {
  %2 = alloca ptr, align 8
  store ptr %0, ptr %2, align 8
  %3 = load ptr, ptr %2, align 8
  %4 = ptrtoint ptr %3 to i64
  ret i64 %4
}

; Function Attrs: inlinehint nounwind uwtable
define internal i64 @CStringGetDatum(ptr noundef %0) #7 {
  %2 = alloca ptr, align 8
  store ptr %0, ptr %2, align 8
  %3 = load ptr, ptr %2, align 8
  %4 = call i64 @PointerGetDatum(ptr noundef %3)
  ret i64 %4
}

; Function Attrs: nounwind uwtable
define dso_local i32 @get_namespace_oid(ptr noundef %0, i1 noundef zeroext %1) #0 {
  %3 = alloca ptr, align 8
  %4 = alloca i8, align 1
  %5 = alloca i32, align 4
  store ptr %0, ptr %3, align 8
  %6 = zext i1 %1 to i8
  store i8 %6, ptr %4, align 1
  call void @llvm.lifetime.start.p0(i64 4, ptr %5) #14
  %7 = load ptr, ptr %3, align 8
  %8 = call i64 @CStringGetDatum(ptr noundef %7)
  %9 = call i32 @GetSysCacheOid(i32 noundef 37, i16 noundef signext 1, i64 noundef %8, i64 noundef 0, i64 noundef 0, i64 noundef 0)
  store i32 %9, ptr %5, align 4
  %10 = load i32, ptr %5, align 4
  %11 = icmp ne i32 %10, 0
  br i1 %11, label %28, label %12

12:                                               ; preds = %2
  %13 = load i8, ptr %4, align 1, !range !4, !noundef !5
  %14 = trunc i8 %13 to i1
  br i1 %14, label %28, label %15

15:                                               ; preds = %12
  br label %16

16:                                               ; preds = %15
  br i1 true, label %17, label %19

17:                                               ; preds = %16
  %18 = call zeroext i1 @errstart_cold(i32 noundef 21, ptr noundef null) #16
  br i1 %18, label %21, label %25

19:                                               ; preds = %16
  %20 = call zeroext i1 @errstart(i32 noundef 21, ptr noundef null)
  br i1 %20, label %21, label %25

21:                                               ; preds = %19, %17
  %22 = call i32 @errcode(i32 noundef 1411)
  %23 = load ptr, ptr %3, align 8
  %24 = call i32 (ptr, ...) @errmsg(ptr noundef @.str.22, ptr noundef %23)
  call void @errfinish(ptr noundef @.str.1, i32 noundef 3544, ptr noundef @__func__.get_namespace_oid)
  br label %25

25:                                               ; preds = %21, %19, %17
  unreachable

26:                                               ; No predecessors!
  br label %27

27:                                               ; preds = %26
  br label %28

28:                                               ; preds = %27, %12, %2
  %29 = load i32, ptr %5, align 4
  call void @llvm.lifetime.end.p0(i64 4, ptr %5) #14
  ret i32 %29
}