; Function Attrs: nounwind uwtable
define dso_local i32 @get_namespace_oid(ptr noundef %0, i1 noundef zeroext %1) local_unnamed_addr #0 {
  %3 = ptrtoint ptr %0 to i64
  %4 = tail call i32 @GetSysCacheOid(i32 noundef 37, i16 noundef signext 1, i64 noundef %3, i64 noundef 0, i64 noundef 0, i64 noundef 0) #19
  %.not = icmp ne i32 %4, 0
  %brmerge = or i1 %1, %.not
  br i1 %brmerge, label %9, label %5

5:                                                ; preds = %2
  %6 = tail call zeroext i1 @errstart_cold(i32 noundef 21, ptr noundef null) #21
  tail call void @llvm.assume(i1 %6)
  %7 = tail call i32 @errcode(i32 noundef 1411) #19
  %8 = tail call i32 (ptr, ...) @errmsg(ptr noundef nonnull @.str.22, ptr noundef %0) #19
  tail call void @errfinish(ptr noundef nonnull @.str.1, i32 noundef 3544, ptr noundef nonnull @__func__.get_namespace_oid) #19
  unreachable

9:                                                ; preds = %2
  ret i32 %4
}